; Function Attrs: mustprogress nounwind uwtable
define dso_local void @_ZN4llvm14MachineOperand19ChangeToFPImmediateEPKNS_10ConstantFPEj(ptr noundef nonnull align 8 dereferenceable(32) %0, ptr noundef %1, i32 noundef %2) local_unnamed_addr #0 align 2 {
  %4 = load i32, ptr %0, align 8
  %5 = and i32 %4, 255
  %6 = icmp eq i32 %5, 0
  %7 = getelementptr inbounds nuw i8, ptr %0, i64 16
  %8 = load ptr, ptr %7, align 8
  %9 = icmp ne ptr %8, null
  %or.cond.i = select i1 %6, i1 %9, i1 false
  br i1 %or.cond.i, label %10, label %_ZN4llvm14MachineOperand17removeRegFromUsesEv.exit

10:                                               ; preds = %3
  %11 = getelementptr inbounds nuw i8, ptr %0, i64 8
  %.val.i = load ptr, ptr %11, align 8
  %.not.i.i.i = icmp eq ptr %.val.i, null
  br i1 %.not.i.i.i, label %_ZN4llvm14MachineOperand17removeRegFromUsesEv.exit, label %12

12:                                               ; preds = %10
  %13 = getelementptr inbounds nuw i8, ptr %.val.i, i64 24
  %14 = load ptr, ptr %13, align 8
  %.not11.i.i.i = icmp eq ptr %14, null
  br i1 %.not11.i.i.i, label %_ZN4llvm14MachineOperand17removeRegFromUsesEv.exit, label %15

15:                                               ; preds = %12
  %16 = getelementptr inbounds nuw i8, ptr %14, i64 32
  %17 = load ptr, ptr %16, align 8
  %.not12.i.i.i = icmp eq ptr %17, null
  br i1 %.not12.i.i.i, label %_ZN4llvm14MachineOperand17removeRegFromUsesEv.exit, label %_ZL16getMFIfAvailableRN4llvm14MachineOperandE.exit.i

_ZL16getMFIfAvailableRN4llvm14MachineOperandE.exit.i: ; preds = %15
  %18 = getelementptr inbounds nuw i8, ptr %17, i64 32
  %19 = load ptr, ptr %18, align 8
  tail call void @_ZN4llvm19MachineRegisterInfo27removeRegOperandFromUseListEPNS_14MachineOperandE(ptr noundef nonnull align 8 dereferenceable(512) %19, ptr noundef nonnull align 8 dereferenceable(32) %0) #21
  %.pre = load i32, ptr %0, align 8
  br label %_ZN4llvm14MachineOperand17removeRegFromUsesEv.exit

_ZN4llvm14MachineOperand17removeRegFromUsesEv.exit: ; preds = %3, %10, %12, %15, %_ZL16getMFIfAvailableRN4llvm14MachineOperandE.exit.i
  %20 = phi i32 [ %4, %3 ], [ %4, %10 ], [ %4, %12 ], [ %4, %15 ], [ %.pre, %_ZL16getMFIfAvailableRN4llvm14MachineOperandE.exit.i ]
  store ptr %1, ptr %7, align 8
  %21 = shl i32 %2, 8
  %22 = and i32 %21, 1048320
  %23 = and i32 %20, -1048576
  %24 = or disjoint i32 %23, %22
  %25 = or disjoint i32 %24, 3
  store i32 %25, ptr %0, align 8
  ret void
}